target datalayout = "e-m:e-p270:32:32-p271:32:32-p272:64:64-i64:64-i128:128-f80:128-n8:16:32:64-S128"
target triple = "x86_64-pc-linux-gnu"

%union._ir_val = type { double }

; Function Attrs: nounwind uwtable
define hidden i32 @ir_const(ptr noundef %0, i64 %1, i8 noundef zeroext %2) #0 {
  %4 = alloca %union._ir_val, align 8
  %5 = alloca ptr, align 8
  %6 = alloca i8, align 1
  %7 = getelementptr inbounds %union._ir_val, ptr %4, i32 0, i32 0
  store i64 %1, ptr %7, align 8
  store ptr %0, ptr %5, align 8
  store i8 %2, ptr %6, align 1
  %8 = load ptr, ptr %5, align 8
  %9 = load i8, ptr %6, align 1
  %10 = load i8, ptr %6, align 1
  %11 = zext i8 %10 to i16
  %12 = zext i16 %11 to i32
  %13 = load i8, ptr %6, align 1
  %14 = zext i8 %13 to i16
  %15 = zext i16 %14 to i32
  %16 = shl i32 %15, 8
  %17 = or i32 %12, %16
  %18 = getelementptr inbounds %union._ir_val, ptr %4, i32 0, i32 0
  %19 = load i64, ptr %18, align 8
  %20 = call i32 @ir_const_ex(ptr noundef %8, i64 %19, i8 noundef zeroext %9, i32 noundef %17)
  ret i32 %20
}

; Function Attrs: nounwind uwtable
define hidden i32 @ir_const_addr(ptr noundef %0, i64 noundef %1) #0 {
  %3 = alloca i32, align 4
  %4 = alloca ptr, align 8
  %5 = alloca i64, align 8
  %6 = alloca %union._ir_val, align 8
  store ptr %0, ptr %4, align 8
  store i64 %1, ptr %5, align 8
  %7 = load i64, ptr %5, align 8
  %8 = icmp eq i64 %7, 0
  br i1 %8, label %9, label %10

9:                                                ; preds = %2
  store i32 -1, ptr %3, align 4
  br label %16

10:                                               ; preds = %2
  %11 = load i64, ptr %5, align 8
  store i64 %11, ptr %6, align 8
  %12 = load ptr, ptr %4, align 8
  %13 = getelementptr inbounds %union._ir_val, ptr %6, i32 0, i32 0
  %14 = load i64, ptr %13, align 8
  %15 = call i32 @ir_const(ptr noundef %12, i64 %14, i8 noundef zeroext 6)
  store i32 %15, ptr %3, align 4
  br label %16

16:                                               ; preds = %10, %9
  %17 = load i32, ptr %3, align 4
  ret i32 %17
}