; Function Attrs: nounwind uwtable
define hidden i32 @ir_const_addr(ptr nocapture noundef %0, i64 noundef %1) local_unnamed_addr #0 {
  %3 = icmp eq i64 %1, 0
  br i1 %3, label %6, label %4

4:                                                ; preds = %2
  %5 = tail call i32 @ir_const_ex(ptr noundef %0, i64 %1, i8 noundef zeroext 6, i32 noundef 1542)
  br label %6

6:                                                ; preds = %2, %4
  %.0 = phi i32 [ %5, %4 ], [ -1, %2 ]
  ret i32 %.0
}